Certificate:
    Data:
        Version: 3 (0x2)
        Serial Number: 1 (0x1)
        Signature Algorithm: sha384WithRSAEncryption
        Issuer: C=US, ST=TX, L=Austin, O=Gluu, Inc, OU=Gluu CA RSA, CN=Gluu.CA.RSA/emailAddress=support@gluu.org
        Validity
            Not Before: Sep 27 13:42:00 2022 GMT
            Not After : Sep 26 13:42:00 2027 GMT
        Subject: C=US, ST=Texas, L=Austin, O=Gluu, Inc, OU=Gluu Client RSA, CN=Gluu.Cln.RSA/emailAddress=client@gluu.org
        Subject Public Key Info:
            Public Key Algorithm: rsaEncryption
                RSA Public-Key: (2048 bit)
                Modulus:
                    00:b9:0f:d6:8d:3b:2a:de:b5:df:6c:a0:44:42:6b:
                    01:5c:4e:ae:06:9c:4f:05:57:41:3d:dc:0f:7c:10:
                    e4:0f:ba:3b:55:6e:96:86:c1:81:12:e5:71:4e:0b:
                    f6:f2:31:d2:50:f0:34:e2:ca:f8:1a:52:af:42:d8:
                    c2:f1:58:27:ac:6c:d8:f0:2e:e2:10:11:a9:2a:e9:
                    7d:89:77:90:d7:97:0f:a0:b9:eb:be:5a:09:4d:c8:
                    f1:9b:11:0c:04:cf:0a:61:60:03:3b:dd:90:f6:77:
                    8d:13:b5:36:01:f5:8a:13:9c:e9:d3:32:23:35:71:
                    ff:20:e7:87:0a:ee:27:14:54:51:b5:85:92:b3:5d:
                    03:0a:7c:35:94:0f:5e:af:c5:a9:f2:c8:9f:4f:ff:
                    ff:2c:4b:57:df:46:3f:ae:d1:be:13:be:14:21:0c:
                    22:0b:0d:91:9b:62:3f:29:01:f3:2f:a6:1f:e1:79:
                    91:ef:eb:51:d3:4a:72:d7:8f:6e:a7:70:fb:7c:9c:
                    ff:38:e0:a4:93:8d:2c:18:59:8f:b6:f5:b4:81:15:
                    1e:83:92:39:2b:26:d5:ee:ef:06:05:e2:33:76:68:
                    13:de:80:9e:e1:8b:be:77:14:95:d1:6f:8e:77:e6:
                    e6:83:c1:f6:80:7f:4b:a1:35:c8:89:d9:22:78:b8:
                    f5:75
                Exponent: 65537 (0x10001)
        X509v3 extensions:
            X509v3 Basic Constraints: 
                CA:TRUE
            Netscape Cert Type: 
                SSL Client
            Netscape Comment: 
                OpenSSL Generated Certificate
            X509v3 Subject Key Identifier: 
                23:1A:5C:D9:5F:14:73:CD:5E:FE:30:2C:71:C6:FE:79:24:44:B9:92
            X509v3 Authority Key Identifier: 
                DirName:/C=US/ST=TX/L=Austin/O=Gluu, Inc/OU=Gluu CA RSA/CN=Gluu.CA.RSA/emailAddress=support@gluu.org
                serial:5D:BA:F2:13:AF:83:EC:9C:E5:1D:7F:4D:25:13:5A:41:13:AA:60:9F

    Signature Algorithm: sha384WithRSAEncryption
         17:f1:0c:c5:fd:e4:c4:5c:b8:6d:6d:9e:fe:76:d1:0b:23:34:
         08:cd:eb:27:e1:1c:96:58:ca:fb:88:05:1c:d5:a2:70:97:52:
         42:8b:a9:0e:86:2a:04:bd:6e:f8:3d:67:25:b2:91:02:d8:d9:
         e6:09:40:29:0e:4d:41:cd:f5:77:03:69:90:29:97:e3:75:98:
         f6:0c:aa:12:0e:b4:a7:03:82:02:64:56:b3:64:87:96:23:7c:
         2c:d6:b7:22:88:0a:79:20:23:a7:af:c8:76:19:eb:6f:d5:70:
         f7:9f:ca:e6:bc:a7:1a:b5:14:f1:2f:06:ae:0e:18:30:6f:0c:
         3f:8e:81:26:2e:c1:90:1a:99:d7:08:3c:ba:38:00:4e:5e:26:
         38:d1:22:82:66:72:8f:95:c4:28:ae:15:11:2e:09:55:3b:82:
         90:f6:a4:49:cc:75:f3:7b:14:39:cf:ae:8d:95:ad:10:61:24:
         23:a4:1b:f0:31:18:81:78:30:8a:6e:c3:ee:60:2b:95:e4:23:
         55:a0:85:68:7e:c3:6c:88:07:4f:7b:df:1f:4c:cc:72:df:34:
         69:d2:30:54:90:45:61:8e:8e:f6:96:4a:99:ea:87:75:90:96:
         3f:3c:f1:49:cd:e2:57:92:fd:42:34:4d:97:7a:96:8b:60:48:
         fb:1f:fe:c0
-----BEGIN CERTIFICATE-----
MIIEyTCCA7GgAwIBAgIBATANBgkqhkiG9w0BAQwFADCBjDELMAkGA1UEBhMCVVMx
CzAJBgNVBAgMAlRYMQ8wDQYDVQQHDAZBdXN0aW4xEjAQBgNVBAoMCUdsdXUsIElu
YzEUMBIGA1UECwwLR2x1dSBDQSBSU0ExFDASBgNVBAMMC0dsdXUuQ0EuUlNBMR8w
HQYJKoZIhvcNAQkBFhBzdXBwb3J0QGdsdXUub3JnMB4XDTIyMDkyNzEzNDIwMFoX
DTI3MDkyNjEzNDIwMFowgZMxCzAJBgNVBAYTAlVTMQ4wDAYDVQQIDAVUZXhhczEP
MA0GA1UEBwwGQXVzdGluMRIwEAYDVQQKDAlHbHV1LCBJbmMxGDAWBgNVBAsMD0ds
dXUgQ2xpZW50IFJTQTEVMBMGA1UEAwwMR2x1dS5DbG4uUlNBMR4wHAYJKoZIhvcN
AQkBFg9jbGllbnRAZ2x1dS5vcmcwggEiMA0GCSqGSIb3DQEBAQUAA4IBDwAwggEK
AoIBAQC5D9aNOyretd9soERCawFcTq4GnE8FV0E93A98EOQPujtVbpaGwYES5XFO
C/byMdJQ8DTiyvgaUq9C2MLxWCesbNjwLuIQEakq6X2Jd5DXlw+gueu+WglNyPGb
EQwEzwphYAM73ZD2d40TtTYB9YoTnOnTMiM1cf8g54cK7icUVFG1hZKzXQMKfDWU
D16vxanyyJ9P//8sS1ffRj+u0b4TvhQhDCILDZGbYj8pAfMvph/heZHv61HTSnLX
j26ncPt8nP844KSTjSwYWY+29bSBFR6DkjkrJtXu7wYF4jN2aBPegJ7hi753FJXR
b4535uaDwfaAf0uhNciJ2SJ4uPV1AgMBAAGjggErMIIBJzAMBgNVHRMEBTADAQH/
MBEGCWCGSAGG+EIBAQQEAwIHgDAsBglghkgBhvhCAQ0EHxYdT3BlblNTTCBHZW5l
cmF0ZWQgQ2VydGlmaWNhdGUwHQYDVR0OBBYEFCMaXNlfFHPNXv4wLHHG/nkkRLmS
MIG2BgNVHSMEga4wgauhgZKkgY8wgYwxCzAJBgNVBAYTAlVTMQswCQYDVQQIDAJU
WDEPMA0GA1UEBwwGQXVzdGluMRIwEAYDVQQKDAlHbHV1LCBJbmMxFDASBgNVBAsM
C0dsdXUgQ0EgUlNBMRQwEgYDVQQDDAtHbHV1LkNBLlJTQTEfMB0GCSqGSIb3DQEJ
ARYQc3VwcG9ydEBnbHV1Lm9yZ4IUXbryE6+D7JzlHX9NJRNaQROqYJ8wDQYJKoZI
hvcNAQEMBQADggEBABfxDMX95MRcuG1tnv520QsjNAjN6yfhHJZYyvuIBRzVonCX
UkKLqQ6GKgS9bvg9ZyWykQLY2eYJQCkOTUHN9XcDaZApl+N1mPYMqhIOtKcDggJk
VrNkh5YjfCzWtyKICnkgI6evyHYZ62/VcPefyua8pxq1FPEvBq4OGDBvDD+OgSYu
wZAamdcIPLo4AE5eJjjRIoJmco+VxCiuFREuCVU7gpD2pEnMdfN7FDnPro2VrRBh
JCOkG/AxGIF4MIpuw+5gK5XkI1WghWh+w2yIB0973x9MzHLfNGnSMFSQRWGOjvaW
Spnqh3WQlj888UnN4leS/UI0TZd6lotgSPsf/sA=
-----END CERTIFICATE-----
